target datalayout = "e-m:e-p270:32:32-p271:32:32-p272:64:64-i64:64-i128:128-f80:128-n8:16:32:64-S128"
target triple = "x86_64-pc-linux-gnu"

%struct.ran_function_pointers_t = type { ptr, ptr, ptr, ptr, ptr, ptr, ptr, ptr, ptr, ptr, ptr, ptr }
%struct.ran_function_dissector_t = type { ptr, [1001 x i8], i8, i8, %struct.ran_function_pointers_t }
%struct._asn1_ctx_t = type { i32, i32, i8, ptr, ptr, ptr, ptr, ptr, %struct.anon.1, %struct.anon.4, %struct.anon.5, ptr }
%struct.anon.1 = type { i32, i8, i8, i8, ptr, ptr, i32, i32, ptr, ptr, ptr, %union.anon }
%union.anon = type { %struct.anon.2 }
%struct.anon.2 = type { ptr }
%struct.anon.4 = type { ptr, ptr, ptr }
%struct.anon.5 = type { i32, i8, ptr, i32, i32, ptr, ptr, ptr, %union.anon.6 }
%union.anon.6 = type { %struct.anon.7 }
%struct.anon.7 = type { ptr }

; Function Attrs: null_pointer_is_valid sspstrong uwtable
define internal i32 @dissect_e2ap_RICactionDefinition(ptr noundef %0, i32 noundef %1, ptr noundef %2, ptr noundef %3, i32 noundef %4) #2 {
  %6 = alloca ptr, align 8
  %7 = alloca i32, align 4
  %8 = alloca ptr, align 8
  %9 = alloca ptr, align 8
  %10 = alloca i32, align 4
  %11 = alloca ptr, align 8
  %12 = alloca ptr, align 8
  store ptr %0, ptr %6, align 8
  store i32 %1, ptr %7, align 4
  store ptr %2, ptr %8, align 8
  store ptr %3, ptr %9, align 8
  store i32 %4, ptr %10, align 4
  call void @llvm.lifetime.start.p0(i64 8, ptr %11) #10
  %13 = load ptr, ptr %6, align 8
  %14 = load i32, ptr %7, align 4
  %15 = load ptr, ptr %8, align 8
  %16 = load ptr, ptr %9, align 8
  %17 = load i32, ptr %10, align 4
  %18 = call i32 @dissect_per_octet_string(ptr noundef %13, i32 noundef %14, ptr noundef %15, ptr noundef %16, i32 noundef %17, i32 noundef -1, i32 noundef -1, i1 noundef zeroext false, ptr noundef %11)
  store i32 %18, ptr %7, align 4
  call void @llvm.lifetime.start.p0(i64 8, ptr %12) #10
  %19 = load ptr, ptr %8, align 8
  %20 = getelementptr inbounds nuw %struct._asn1_ctx_t, ptr %19, i32 0, i32 3
  %21 = load ptr, ptr %20, align 8
  %22 = load ptr, ptr %9, align 8
  %23 = load ptr, ptr %11, align 8
  %24 = call ptr @lookup_ranfunction_dissector(ptr noundef %21, ptr noundef %22, ptr noundef %23)
  store ptr %24, ptr %12, align 8
  %25 = load ptr, ptr %12, align 8
  %26 = icmp ne ptr %25, null
  br i1 %26, label %27, label %45

27:                                               ; preds = %5
  %28 = load ptr, ptr %12, align 8
  %29 = getelementptr inbounds nuw %struct.ran_function_dissector_t, ptr %28, i32 0, i32 4
  %30 = getelementptr inbounds nuw %struct.ran_function_pointers_t, ptr %29, i32 0, i32 7
  %31 = load ptr, ptr %30, align 8
  %32 = icmp ne ptr %31, null
  br i1 %32, label %33, label %44

33:                                               ; preds = %27
  %34 = load ptr, ptr %12, align 8
  %35 = getelementptr inbounds nuw %struct.ran_function_dissector_t, ptr %34, i32 0, i32 4
  %36 = getelementptr inbounds nuw %struct.ran_function_pointers_t, ptr %35, i32 0, i32 7
  %37 = load ptr, ptr %36, align 8
  %38 = load ptr, ptr %11, align 8
  %39 = load ptr, ptr %8, align 8
  %40 = getelementptr inbounds nuw %struct._asn1_ctx_t, ptr %39, i32 0, i32 3
  %41 = load ptr, ptr %40, align 8
  %42 = load ptr, ptr %9, align 8
  %43 = call i32 %37(ptr noundef %38, ptr noundef %41, ptr noundef %42, ptr noundef null)
  br label %44

44:                                               ; preds = %33, %27
  br label %45

45:                                               ; preds = %44, %5
  %46 = load i32, ptr %7, align 4
  call void @llvm.lifetime.end.p0(i64 8, ptr %12) #10
  call void @llvm.lifetime.end.p0(i64 8, ptr %11) #10
  ret i32 %46
}